target datalayout = "e-m:e-p270:32:32-p271:32:32-p272:64:64-i64:64-i128:128-f80:128-n8:16:32:64-S128"
target triple = "x86_64-unknown-linux-gnu"

%"struct.facebook::velox::ByteRange" = type { ptr, i32, i32 }
%"class.facebook::velox::ByteInputStream" = type { ptr, %"class.std::vector", ptr }
%"class.std::vector" = type { %"struct.std::_Vector_base" }
%"struct.std::_Vector_base" = type { %"struct.std::_Vector_base<facebook::velox::ByteRange, std::allocator<facebook::velox::ByteRange>>::_Vector_impl" }
%"struct.std::_Vector_base<facebook::velox::ByteRange, std::allocator<facebook::velox::ByteRange>>::_Vector_impl" = type { %"struct.std::_Vector_base<facebook::velox::ByteRange, std::allocator<facebook::velox::ByteRange>>::_Vector_impl_data" }
%"struct.std::_Vector_base<facebook::velox::ByteRange, std::allocator<facebook::velox::ByteRange>>::_Vector_impl_data" = type { ptr, ptr, ptr }

; Function Attrs: mustprogress nounwind uwtable
define linkonce_odr noundef i64 @_ZNKSt6vectorIN8facebook5velox9ByteRangeESaIS2_EE4sizeEv(ptr noundef nonnull align 8 dereferenceable(24) %this) #3 comdat align 2 {
entry:
  %this.addr = alloca ptr, align 8
  store ptr %this, ptr %this.addr, align 8
  %this1 = load ptr, ptr %this.addr, align 8
  %_M_impl = getelementptr inbounds %"struct.std::_Vector_base", ptr %this1, i32 0, i32 0
  %_M_finish = getelementptr inbounds %"struct.std::_Vector_base<facebook::velox::ByteRange, std::allocator<facebook::velox::ByteRange>>::_Vector_impl_data", ptr %_M_impl, i32 0, i32 1
  %0 = load ptr, ptr %_M_finish, align 8
  %_M_impl2 = getelementptr inbounds %"struct.std::_Vector_base", ptr %this1, i32 0, i32 0
  %_M_start = getelementptr inbounds %"struct.std::_Vector_base<facebook::velox::ByteRange, std::allocator<facebook::velox::ByteRange>>::_Vector_impl_data", ptr %_M_impl2, i32 0, i32 0
  %1 = load ptr, ptr %_M_start, align 8
  %sub.ptr.lhs.cast = ptrtoint ptr %0 to i64
  %sub.ptr.rhs.cast = ptrtoint ptr %1 to i64
  %sub.ptr.sub = sub i64 %sub.ptr.lhs.cast, %sub.ptr.rhs.cast
  %sub.ptr.div = sdiv exact i64 %sub.ptr.sub, 16
  ret i64 %sub.ptr.div
}

; Function Attrs: mustprogress nounwind uwtable
define linkonce_odr noundef nonnull align 8 dereferenceable(16) ptr @_ZNSt6vectorIN8facebook5velox9ByteRangeESaIS2_EEixEm(ptr noundef nonnull align 8 dereferenceable(24) %this, i64 noundef %__n) #3 comdat align 2 {
entry:
  %this.addr = alloca ptr, align 8
  %__n.addr = alloca i64, align 8
  store ptr %this, ptr %this.addr, align 8
  store i64 %__n, ptr %__n.addr, align 8
  %this1 = load ptr, ptr %this.addr, align 8
  %_M_impl = getelementptr inbounds %"struct.std::_Vector_base", ptr %this1, i32 0, i32 0
  %_M_start = getelementptr inbounds %"struct.std::_Vector_base<facebook::velox::ByteRange, std::allocator<facebook::velox::ByteRange>>::_Vector_impl_data", ptr %_M_impl, i32 0, i32 0
  %0 = load ptr, ptr %_M_start, align 8
  %1 = load i64, ptr %__n.addr, align 8
  %add.ptr = getelementptr inbounds %"struct.facebook::velox::ByteRange", ptr %0, i64 %1
  ret ptr %add.ptr
}

; Function Attrs: mustprogress nounwind uwtable
define void @_ZN8facebook5velox15ByteInputStream4nextEb(ptr noundef nonnull align 8 dereferenceable(40) %this, i1 noundef zeroext %throwIfPastEnd) unnamed_addr #3 align 2 {
entry:
  %this.addr = alloca ptr, align 8
  %throwIfPastEnd.addr = alloca i8, align 1
  %position = alloca i64, align 8
  store ptr %this, ptr %this.addr, align 8
  %frombool = zext i1 %throwIfPastEnd to i8
  store i8 %frombool, ptr %throwIfPastEnd.addr, align 1
  %this1 = load ptr, ptr %this.addr, align 8
  %current_ = getelementptr inbounds %"class.facebook::velox::ByteInputStream", ptr %this1, i32 0, i32 2
  %0 = load ptr, ptr %current_, align 8
  %ranges_ = getelementptr inbounds %"class.facebook::velox::ByteInputStream", ptr %this1, i32 0, i32 1
  %call = call noundef nonnull align 8 dereferenceable(16) ptr @_ZNSt6vectorIN8facebook5velox9ByteRangeESaIS2_EEixEm(ptr noundef nonnull align 8 dereferenceable(24) %ranges_, i64 noundef 0) #14
  %cmp = icmp uge ptr %0, %call
  %lnot = xor i1 %cmp, true
  br i1 %lnot, label %if.then, label %if.end

if.then:                                          ; preds = %entry
  call void @llvm.trap()
  br label %if.end

if.end:                                           ; preds = %if.then, %entry
  %current_2 = getelementptr inbounds %"class.facebook::velox::ByteInputStream", ptr %this1, i32 0, i32 2
  %1 = load ptr, ptr %current_2, align 8
  %ranges_3 = getelementptr inbounds %"class.facebook::velox::ByteInputStream", ptr %this1, i32 0, i32 1
  %call4 = call noundef nonnull align 8 dereferenceable(16) ptr @_ZNSt6vectorIN8facebook5velox9ByteRangeESaIS2_EEixEm(ptr noundef nonnull align 8 dereferenceable(24) %ranges_3, i64 noundef 0) #14
  %sub.ptr.lhs.cast = ptrtoint ptr %1 to i64
  %sub.ptr.rhs.cast = ptrtoint ptr %call4 to i64
  %sub.ptr.sub = sub i64 %sub.ptr.lhs.cast, %sub.ptr.rhs.cast
  %sub.ptr.div = sdiv exact i64 %sub.ptr.sub, 16
  store i64 %sub.ptr.div, ptr %position, align 8
  %2 = load i64, ptr %position, align 8
  %ranges_5 = getelementptr inbounds %"class.facebook::velox::ByteInputStream", ptr %this1, i32 0, i32 1
  %call6 = call noundef i64 @_ZNKSt6vectorIN8facebook5velox9ByteRangeESaIS2_EE4sizeEv(ptr noundef nonnull align 8 dereferenceable(24) %ranges_5) #14
  %cmp7 = icmp ult i64 %2, %call6
  %lnot8 = xor i1 %cmp7, true
  br i1 %lnot8, label %if.then9, label %if.end10

if.then9:                                         ; preds = %if.end
  call void @llvm.trap()
  br label %if.end10

if.end10:                                         ; preds = %if.then9, %if.end
  %3 = load i64, ptr %position, align 8
  %ranges_11 = getelementptr inbounds %"class.facebook::velox::ByteInputStream", ptr %this1, i32 0, i32 1
  %call12 = call noundef i64 @_ZNKSt6vectorIN8facebook5velox9ByteRangeESaIS2_EE4sizeEv(ptr noundef nonnull align 8 dereferenceable(24) %ranges_11) #14
  %sub = sub i64 %call12, 1
  %cmp13 = icmp eq i64 %3, %sub
  br i1 %cmp13, label %if.then14, label %if.end17

if.then14:                                        ; preds = %if.end10
  %4 = load i8, ptr %throwIfPastEnd.addr, align 1
  %tobool = trunc i8 %4 to i1
  br i1 %tobool, label %if.then15, label %if.end16

if.then15:                                        ; preds = %if.then14
  call void @llvm.trap()
  br label %if.end16

if.end16:                                         ; preds = %if.then15, %if.then14
  br label %return

if.end17:                                         ; preds = %if.end10
  %current_18 = getelementptr inbounds %"class.facebook::velox::ByteInputStream", ptr %this1, i32 0, i32 2
  %5 = load ptr, ptr %current_18, align 8
  %incdec.ptr = getelementptr inbounds %"struct.facebook::velox::ByteRange", ptr %5, i32 1
  store ptr %incdec.ptr, ptr %current_18, align 8
  %current_19 = getelementptr inbounds %"class.facebook::velox::ByteInputStream", ptr %this1, i32 0, i32 2
  %6 = load ptr, ptr %current_19, align 8
  %position20 = getelementptr inbounds %"struct.facebook::velox::ByteRange", ptr %6, i32 0, i32 2
  store i32 0, ptr %position20, align 4
  br label %return

return:                                           ; preds = %if.end17, %if.end16
  ret void
}