; Function Attrs: mustprogress nounwind memory(write, argmem: readwrite) uwtable
define void @_ZN8facebook5velox15ByteInputStream4nextEb(ptr nocapture noundef nonnull align 8 dereferenceable(40) %this, i1 noundef zeroext %throwIfPastEnd) unnamed_addr #7 align 2 {
entry:
  %current_ = getelementptr inbounds i8, ptr %this, i64 32
  %0 = load ptr, ptr %current_, align 8
  %ranges_ = getelementptr inbounds i8, ptr %this, i64 8
  %1 = load ptr, ptr %ranges_, align 8
  %cmp.not = icmp ult ptr %0, %1
  br i1 %cmp.not, label %if.then, label %if.end

if.then:                                          ; preds = %entry
  tail call void @llvm.trap()
  unreachable

if.end:                                           ; preds = %entry
  %sub.ptr.lhs.cast = ptrtoint ptr %0 to i64
  %sub.ptr.rhs.cast = ptrtoint ptr %1 to i64
  %sub.ptr.sub = sub i64 %sub.ptr.lhs.cast, %sub.ptr.rhs.cast
  %sub.ptr.div = ashr exact i64 %sub.ptr.sub, 4
  %_M_finish.i = getelementptr inbounds i8, ptr %this, i64 16
  %2 = load ptr, ptr %_M_finish.i, align 8
  %sub.ptr.lhs.cast.i = ptrtoint ptr %2 to i64
  %sub.ptr.sub.i = sub i64 %sub.ptr.lhs.cast.i, %sub.ptr.rhs.cast
  %sub.ptr.div.i = ashr exact i64 %sub.ptr.sub.i, 4
  %cmp7.not = icmp ult i64 %sub.ptr.div, %sub.ptr.div.i
  br i1 %cmp7.not, label %if.end10, label %if.then9

if.then9:                                         ; preds = %if.end
  tail call void @llvm.trap()
  unreachable

if.end10:                                         ; preds = %if.end
  %sub = add nsw i64 %sub.ptr.div.i, -1
  %cmp13 = icmp eq i64 %sub.ptr.div, %sub
  br i1 %cmp13, label %if.then14, label %if.end17

if.then14:                                        ; preds = %if.end10
  br i1 %throwIfPastEnd, label %if.then15, label %return

if.then15:                                        ; preds = %if.then14
  tail call void @llvm.trap()
  unreachable

if.end17:                                         ; preds = %if.end10
  %incdec.ptr = getelementptr inbounds i8, ptr %0, i64 16
  store ptr %incdec.ptr, ptr %current_, align 8
  %position20 = getelementptr inbounds i8, ptr %0, i64 28
  store i32 0, ptr %position20, align 4
  br label %return

return:                                           ; preds = %if.then14, %if.end17
  ret void
}